target datalayout = "e-m:e-p270:32:32-p271:32:32-p272:64:64-i64:64-i128:128-f80:128-n8:16:32:64-S128"
target triple = "x86_64-pc-linux-gnu"

%"class.rocksdb::Slice" = type { ptr, i64 }
%"class.rocksdb::FileIndexer" = type { i64, ptr, %"class.rocksdb::autovector", ptr }
%"class.rocksdb::autovector" = type { i64, [128 x i8], ptr, %"class.std::vector.0" }
%"class.std::vector.0" = type { %"struct.std::_Vector_base.1" }
%"struct.std::_Vector_base.1" = type { %"struct.std::_Vector_base<rocksdb::FileIndexer::IndexLevel, std::allocator<rocksdb::FileIndexer::IndexLevel>>::_Vector_impl" }
%"struct.std::_Vector_base<rocksdb::FileIndexer::IndexLevel, std::allocator<rocksdb::FileIndexer::IndexLevel>>::_Vector_impl" = type { %"struct.std::_Vector_base<rocksdb::FileIndexer::IndexLevel, std::allocator<rocksdb::FileIndexer::IndexLevel>>::_Vector_impl_data" }
%"struct.std::_Vector_base<rocksdb::FileIndexer::IndexLevel, std::allocator<rocksdb::FileIndexer::IndexLevel>>::_Vector_impl_data" = type { ptr, ptr, ptr }
%class.anon.23 = type { ptr }
%"struct.rocksdb::FileMetaData" = type <{ %"struct.rocksdb::FileDescriptor", %"class.rocksdb::InternalKey", %"class.rocksdb::InternalKey", ptr, %"struct.rocksdb::FileSampledStats", i64, i64, i64, i64, i64, i64, i64, i32, i8, i8, i8, i8, i64, i64, i64, i64, %"class.std::__cxx11::basic_string", %"class.std::__cxx11::basic_string", %"struct.std::array", i64, i8, [7 x i8] }>
%"struct.rocksdb::FileDescriptor" = type { ptr, i64, i64, i64, i64 }
%"class.rocksdb::InternalKey" = type { %"class.std::__cxx11::basic_string" }
%"struct.rocksdb::FileSampledStats" = type { %"struct.std::atomic" }
%"struct.std::atomic" = type { %"struct.std::__atomic_base" }
%"struct.std::__atomic_base" = type { i64 }
%"class.std::__cxx11::basic_string" = type { %"struct.std::__cxx11::basic_string<char>::_Alloc_hider", i64, %union.anon }
%"struct.std::__cxx11::basic_string<char>::_Alloc_hider" = type { ptr }
%union.anon = type { i64, [8 x i8] }
%"struct.std::array" = type { [2 x i64] }

; Function Attrs: noinline noreturn nounwind uwtable
define linkonce_odr hidden void @__clang_call_terminate(ptr noundef %0) #8 comdat {
  %2 = call ptr @__cxa_begin_catch(ptr %0) #5
  call void @_ZSt9terminatev() #14
  unreachable
}

; Function Attrs: mustprogress nounwind uwtable
define available_externally noundef ptr @_ZNKSt7__cxx1112basic_stringIcSt11char_traitsIcESaIcEE7_M_dataEv(ptr noundef nonnull align 8 dereferenceable(32) %0) #4 align 2 {
  %2 = alloca ptr, align 8
  store ptr %0, ptr %2, align 8, !tbaa !142
  %3 = load ptr, ptr %2, align 8
  %4 = getelementptr inbounds nuw %"class.std::__cxx11::basic_string", ptr %3, i32 0, i32 0
  %5 = getelementptr inbounds nuw %"struct.std::__cxx11::basic_string<char>::_Alloc_hider", ptr %4, i32 0, i32 0
  %6 = load ptr, ptr %5, align 8, !tbaa !147
  ret ptr %6
}

; Function Attrs: mustprogress nounwind uwtable
define linkonce_odr void @_ZN7rocksdb5SliceC2EPKcm(ptr noundef nonnull align 8 dereferenceable(16) %0, ptr noundef %1, i64 noundef %2) unnamed_addr #4 comdat align 2 {
  %4 = alloca ptr, align 8
  %5 = alloca ptr, align 8
  %6 = alloca i64, align 8
  store ptr %0, ptr %4, align 8, !tbaa !10
  store ptr %1, ptr %5, align 8, !tbaa !60
  store i64 %2, ptr %6, align 8, !tbaa !4
  %7 = load ptr, ptr %4, align 8
  %8 = getelementptr inbounds nuw %"class.rocksdb::Slice", ptr %7, i32 0, i32 0
  %9 = load ptr, ptr %5, align 8, !tbaa !60
  store ptr %9, ptr %8, align 8, !tbaa !13
  %10 = getelementptr inbounds nuw %"class.rocksdb::Slice", ptr %7, i32 0, i32 1
  %11 = load i64, ptr %6, align 8, !tbaa !4
  store i64 %11, ptr %10, align 8, !tbaa !16
  ret void
}

; Function Attrs: mustprogress nounwind uwtable
define linkonce_odr noundef i64 @_ZNK7rocksdb5Slice4sizeEv(ptr noundef nonnull align 8 dereferenceable(16) %0) #4 comdat align 2 {
  %2 = alloca ptr, align 8
  store ptr %0, ptr %2, align 8, !tbaa !10
  %3 = load ptr, ptr %2, align 8
  %4 = getelementptr inbounds nuw %"class.rocksdb::Slice", ptr %3, i32 0, i32 1
  %5 = load i64, ptr %4, align 8, !tbaa !16
  ret i64 %5
}

; Function Attrs: mustprogress nounwind uwtable
define linkonce_odr noundef ptr @_ZNK7rocksdb5Slice4dataEv(ptr noundef nonnull align 8 dereferenceable(16) %0) #4 comdat align 2 {
  %2 = alloca ptr, align 8
  store ptr %0, ptr %2, align 8, !tbaa !10
  %3 = load ptr, ptr %2, align 8
  %4 = getelementptr inbounds nuw %"class.rocksdb::Slice", ptr %3, i32 0, i32 0
  %5 = load ptr, ptr %4, align 8, !tbaa !13
  ret ptr %5
}

; Function Attrs: mustprogress nounwind uwtable
define available_externally noundef i64 @_ZNKSt7__cxx1112basic_stringIcSt11char_traitsIcESaIcEE4sizeEv(ptr noundef nonnull align 8 dereferenceable(32) %0) #4 align 2 {
  %2 = alloca ptr, align 8
  store ptr %0, ptr %2, align 8, !tbaa !142
  %3 = load ptr, ptr %2, align 8
  %4 = getelementptr inbounds nuw %"class.std::__cxx11::basic_string", ptr %3, i32 0, i32 1
  %5 = load i64, ptr %4, align 8, !tbaa !144
  ret i64 %5
}

; Function Attrs: mustprogress nounwind uwtable
define available_externally noundef ptr @_ZNKSt7__cxx1112basic_stringIcSt11char_traitsIcESaIcEE4dataEv(ptr noundef nonnull align 8 dereferenceable(32) %0) #4 align 2 personality ptr @__gxx_personality_v0 {
  %2 = alloca ptr, align 8
  store ptr %0, ptr %2, align 8, !tbaa !142
  %3 = load ptr, ptr %2, align 8
  %4 = invoke noundef ptr @_ZNKSt7__cxx1112basic_stringIcSt11char_traitsIcESaIcEE7_M_dataEv(ptr noundef nonnull align 8 dereferenceable(32) %3)
          to label %5 unwind label %6

5:                                                ; preds = %1
  ret ptr %4

6:                                                ; preds = %1
  %7 = landingpad { ptr, i32 }
          catch ptr null
  %8 = extractvalue { ptr, i32 } %7, 0
  call void @__clang_call_terminate(ptr %8) #14
  unreachable
}

; Function Attrs: inlinehint mustprogress uwtable
define linkonce_odr { ptr, i64 } @_ZN7rocksdb14ExtractUserKeyERKNS_5SliceE(ptr noundef nonnull align 8 dereferenceable(16) %0) #3 comdat {
  %2 = alloca %"class.rocksdb::Slice", align 8
  %3 = alloca ptr, align 8
  store ptr %0, ptr %3, align 8, !tbaa !10
  %4 = load ptr, ptr %3, align 8, !tbaa !10
  %5 = call noundef ptr @_ZNK7rocksdb5Slice4dataEv(ptr noundef nonnull align 8 dereferenceable(16) %4)
  %6 = load ptr, ptr %3, align 8, !tbaa !10
  %7 = call noundef i64 @_ZNK7rocksdb5Slice4sizeEv(ptr noundef nonnull align 8 dereferenceable(16) %6)
  %8 = sub i64 %7, 8
  call void @_ZN7rocksdb5SliceC2EPKcm(ptr noundef nonnull align 8 dereferenceable(16) %2, ptr noundef %5, i64 noundef %8)
  %9 = load { ptr, i64 }, ptr %2, align 8
  ret { ptr, i64 } %9
}

; Function Attrs: mustprogress nounwind uwtable
define linkonce_odr void @_ZN7rocksdb5SliceC2ERKNSt7__cxx1112basic_stringIcSt11char_traitsIcESaIcEEE(ptr noundef nonnull align 8 dereferenceable(16) %0, ptr noundef nonnull align 8 dereferenceable(32) %1) unnamed_addr #4 comdat align 2 {
  %3 = alloca ptr, align 8
  %4 = alloca ptr, align 8
  store ptr %0, ptr %3, align 8, !tbaa !10
  store ptr %1, ptr %4, align 8, !tbaa !142
  %5 = load ptr, ptr %3, align 8
  %6 = getelementptr inbounds nuw %"class.rocksdb::Slice", ptr %5, i32 0, i32 0
  %7 = load ptr, ptr %4, align 8, !tbaa !142
  %8 = call noundef ptr @_ZNKSt7__cxx1112basic_stringIcSt11char_traitsIcESaIcEE4dataEv(ptr noundef nonnull align 8 dereferenceable(32) %7) #5
  store ptr %8, ptr %6, align 8, !tbaa !13
  %9 = getelementptr inbounds nuw %"class.rocksdb::Slice", ptr %5, i32 0, i32 1
  %10 = load ptr, ptr %4, align 8, !tbaa !142
  %11 = call noundef i64 @_ZNKSt7__cxx1112basic_stringIcSt11char_traitsIcESaIcEE4sizeEv(ptr noundef nonnull align 8 dereferenceable(32) %10) #5
  store i64 %11, ptr %9, align 8, !tbaa !16
  ret void
}

; Function Attrs: mustprogress uwtable
define linkonce_odr noundef i32 @_ZNK7rocksdb10Comparator23CompareWithoutTimestampERKNS_5SliceES3_(ptr noundef nonnull align 8 dereferenceable(48) %0, ptr noundef nonnull align 8 dereferenceable(16) %1, ptr noundef nonnull align 8 dereferenceable(16) %2) #6 comdat align 2 {
  %4 = alloca ptr, align 8
  %5 = alloca ptr, align 8
  %6 = alloca ptr, align 8
  store ptr %0, ptr %4, align 8, !tbaa !24
  store ptr %1, ptr %5, align 8, !tbaa !10
  store ptr %2, ptr %6, align 8, !tbaa !10
  %7 = load ptr, ptr %4, align 8
  %8 = load ptr, ptr %5, align 8, !tbaa !10
  %9 = load ptr, ptr %6, align 8, !tbaa !10
  %10 = load ptr, ptr %7, align 8, !tbaa !58
  %11 = getelementptr inbounds ptr, ptr %10, i64 29
  %12 = load ptr, ptr %11, align 8
  %13 = call noundef i32 %12(ptr noundef nonnull align 8 dereferenceable(48) %7, ptr noundef nonnull align 8 dereferenceable(16) %8, i1 noundef zeroext true, ptr noundef nonnull align 8 dereferenceable(16) %9, i1 noundef zeroext true)
  ret i32 %13
}

; Function Attrs: mustprogress uwtable
define linkonce_odr { ptr, i64 } @_ZNK7rocksdb11InternalKey8user_keyEv(ptr noundef nonnull align 8 dereferenceable(32) %0) #6 comdat align 2 {
  %2 = alloca %"class.rocksdb::Slice", align 8
  %3 = alloca ptr, align 8
  %4 = alloca %"class.rocksdb::Slice", align 8
  store ptr %0, ptr %3, align 8, !tbaa !140
  %5 = load ptr, ptr %3, align 8
  call void @llvm.lifetime.start.p0(i64 16, ptr %4) #5
  %6 = getelementptr inbounds nuw %"class.rocksdb::InternalKey", ptr %5, i32 0, i32 0
  call void @_ZN7rocksdb5SliceC2ERKNSt7__cxx1112basic_stringIcSt11char_traitsIcESaIcEEE(ptr noundef nonnull align 8 dereferenceable(16) %4, ptr noundef nonnull align 8 dereferenceable(32) %6)
  %7 = call { ptr, i64 } @_ZN7rocksdb14ExtractUserKeyERKNS_5SliceE(ptr noundef nonnull align 8 dereferenceable(16) %4)
  %8 = getelementptr inbounds nuw { ptr, i64 }, ptr %2, i32 0, i32 0
  %9 = extractvalue { ptr, i64 } %7, 0
  store ptr %9, ptr %8, align 8
  %10 = getelementptr inbounds nuw { ptr, i64 }, ptr %2, i32 0, i32 1
  %11 = extractvalue { ptr, i64 } %7, 1
  store i64 %11, ptr %10, align 8
  call void @llvm.lifetime.end.p0(i64 16, ptr %4) #5
  %12 = load { ptr, i64 }, ptr %2, align 8
  ret { ptr, i64 } %12
}

; Function Attrs: inlinehint mustprogress uwtable
define internal noundef i32 @"_ZZN7rocksdb11FileIndexer11UpdateIndexEPNS_5ArenaEmPSt6vectorIPNS_12FileMetaDataESaIS5_EEENK3$_2clEPKS4_SB_"(ptr noundef nonnull align 8 dereferenceable(8) %0, ptr noundef %1, ptr noundef %2) #3 align 2 {
  %4 = alloca ptr, align 8
  %5 = alloca ptr, align 8
  %6 = alloca ptr, align 8
  %7 = alloca %"class.rocksdb::Slice", align 8
  %8 = alloca %"class.rocksdb::Slice", align 8
  store ptr %0, ptr %4, align 8, !tbaa !89
  store ptr %1, ptr %5, align 8, !tbaa !85
  store ptr %2, ptr %6, align 8, !tbaa !85
  %9 = load ptr, ptr %4, align 8
  %10 = getelementptr inbounds nuw %class.anon.23, ptr %9, i32 0, i32 0
  %11 = load ptr, ptr %10, align 8, !tbaa !66
  %12 = getelementptr inbounds nuw %"class.rocksdb::FileIndexer", ptr %11, i32 0, i32 1
  %13 = load ptr, ptr %12, align 8, !tbaa !35
  call void @llvm.lifetime.start.p0(i64 16, ptr %7) #5
  %14 = load ptr, ptr %5, align 8, !tbaa !85
  %15 = getelementptr inbounds nuw %"struct.rocksdb::FileMetaData", ptr %14, i32 0, i32 2
  %16 = call { ptr, i64 } @_ZNK7rocksdb11InternalKey8user_keyEv(ptr noundef nonnull align 8 dereferenceable(32) %15)
  %17 = getelementptr inbounds nuw { ptr, i64 }, ptr %7, i32 0, i32 0
  %18 = extractvalue { ptr, i64 } %16, 0
  store ptr %18, ptr %17, align 8
  %19 = getelementptr inbounds nuw { ptr, i64 }, ptr %7, i32 0, i32 1
  %20 = extractvalue { ptr, i64 } %16, 1
  store i64 %20, ptr %19, align 8
  call void @llvm.lifetime.start.p0(i64 16, ptr %8) #5
  %21 = load ptr, ptr %6, align 8, !tbaa !85
  %22 = getelementptr inbounds nuw %"struct.rocksdb::FileMetaData", ptr %21, i32 0, i32 2
  %23 = call { ptr, i64 } @_ZNK7rocksdb11InternalKey8user_keyEv(ptr noundef nonnull align 8 dereferenceable(32) %22)
  %24 = getelementptr inbounds nuw { ptr, i64 }, ptr %8, i32 0, i32 0
  %25 = extractvalue { ptr, i64 } %23, 0
  store ptr %25, ptr %24, align 8
  %26 = getelementptr inbounds nuw { ptr, i64 }, ptr %8, i32 0, i32 1
  %27 = extractvalue { ptr, i64 } %23, 1
  store i64 %27, ptr %26, align 8
  %28 = call noundef i32 @_ZNK7rocksdb10Comparator23CompareWithoutTimestampERKNS_5SliceES3_(ptr noundef nonnull align 8 dereferenceable(48) %13, ptr noundef nonnull align 8 dereferenceable(16) %7, ptr noundef nonnull align 8 dereferenceable(16) %8)
  call void @llvm.lifetime.end.p0(i64 16, ptr %8) #5
  call void @llvm.lifetime.end.p0(i64 16, ptr %7) #5
  ret i32 %28
}

; Function Attrs: mustprogress nounwind uwtable
define linkonce_odr noundef ptr @_ZNKSt9_Any_data9_M_accessEv(ptr noundef nonnull align 8 dereferenceable(16) %0) #4 comdat align 2 {
  %2 = alloca ptr, align 8
  store ptr %0, ptr %2, align 8, !tbaa !134
  %3 = load ptr, ptr %2, align 8
  %4 = getelementptr inbounds [16 x i8], ptr %3, i64 0, i64 0
  ret ptr %4
}

; Function Attrs: mustprogress uwtable
define internal noundef i32 @"_ZSt13__invoke_implIiRZN7rocksdb11FileIndexer11UpdateIndexEPNS0_5ArenaEmPSt6vectorIPNS0_12FileMetaDataESaIS6_EEE3$_2JPKS5_SD_EET_St14__invoke_otherOT0_DpOT1_"(ptr noundef nonnull align 8 dereferenceable(8) %0, ptr noundef nonnull align 8 dereferenceable(8) %1, ptr noundef nonnull align 8 dereferenceable(8) %2) #6 {
  %4 = alloca ptr, align 8
  %5 = alloca ptr, align 8
  %6 = alloca ptr, align 8
  store ptr %0, ptr %4, align 8, !tbaa !89
  store ptr %1, ptr %5, align 8, !tbaa !136
  store ptr %2, ptr %6, align 8, !tbaa !136
  %7 = load ptr, ptr %4, align 8, !tbaa !89
  %8 = load ptr, ptr %5, align 8, !tbaa !136
  %9 = load ptr, ptr %8, align 8, !tbaa !85
  %10 = load ptr, ptr %6, align 8, !tbaa !136
  %11 = load ptr, ptr %10, align 8, !tbaa !85
  %12 = call noundef i32 @"_ZZN7rocksdb11FileIndexer11UpdateIndexEPNS_5ArenaEmPSt6vectorIPNS_12FileMetaDataESaIS5_EEENK3$_2clEPKS4_SB_"(ptr noundef nonnull align 8 dereferenceable(8) %7, ptr noundef %9, ptr noundef %11)
  ret i32 %12
}

; Function Attrs: mustprogress nounwind uwtable
define internal noundef nonnull align 8 dereferenceable(8) ptr @"_ZNKSt9_Any_data9_M_accessIZN7rocksdb11FileIndexer11UpdateIndexEPNS1_5ArenaEmPSt6vectorIPNS1_12FileMetaDataESaIS7_EEE3$_2EERKT_v"(ptr noundef nonnull align 8 dereferenceable(16) %0) #4 align 2 {
  %2 = alloca ptr, align 8
  store ptr %0, ptr %2, align 8, !tbaa !134
  %3 = load ptr, ptr %2, align 8
  %4 = call noundef ptr @_ZNKSt9_Any_data9_M_accessEv(ptr noundef nonnull align 8 dereferenceable(16) %3) #5
  ret ptr %4
}

; Function Attrs: mustprogress uwtable
define internal noundef i32 @"_ZSt10__invoke_rIiRZN7rocksdb11FileIndexer11UpdateIndexEPNS0_5ArenaEmPSt6vectorIPNS0_12FileMetaDataESaIS6_EEE3$_2JPKS5_SD_EENSt9enable_ifIX16is_invocable_r_vIT_T0_DpT1_EESF_E4typeEOSG_DpOSH_"(ptr noundef nonnull align 8 dereferenceable(8) %0, ptr noundef nonnull align 8 dereferenceable(8) %1, ptr noundef nonnull align 8 dereferenceable(8) %2) #6 {
  %4 = alloca ptr, align 8
  %5 = alloca ptr, align 8
  %6 = alloca ptr, align 8
  store ptr %0, ptr %4, align 8, !tbaa !89
  store ptr %1, ptr %5, align 8, !tbaa !136
  store ptr %2, ptr %6, align 8, !tbaa !136
  %7 = load ptr, ptr %4, align 8, !tbaa !89
  %8 = load ptr, ptr %5, align 8, !tbaa !136
  %9 = load ptr, ptr %6, align 8, !tbaa !136
  %10 = call noundef i32 @"_ZSt13__invoke_implIiRZN7rocksdb11FileIndexer11UpdateIndexEPNS0_5ArenaEmPSt6vectorIPNS0_12FileMetaDataESaIS6_EEE3$_2JPKS5_SD_EET_St14__invoke_otherOT0_DpOT1_"(ptr noundef nonnull align 8 dereferenceable(8) %7, ptr noundef nonnull align 8 dereferenceable(8) %8, ptr noundef nonnull align 8 dereferenceable(8) %9)
  ret i32 %10
}

; Function Attrs: mustprogress nounwind uwtable
define internal noundef ptr @"_ZNSt14_Function_base13_Base_managerIZN7rocksdb11FileIndexer11UpdateIndexEPNS1_5ArenaEmPSt6vectorIPNS1_12FileMetaDataESaIS7_EEE3$_2E14_M_get_pointerERKSt9_Any_data"(ptr noundef nonnull align 8 dereferenceable(16) %0) #4 align 2 {
  %2 = alloca ptr, align 8
  %3 = alloca ptr, align 8
  store ptr %0, ptr %2, align 8, !tbaa !134
  call void @llvm.lifetime.start.p0(i64 8, ptr %3) #5
  %4 = load ptr, ptr %2, align 8, !tbaa !134
  %5 = call noundef nonnull align 8 dereferenceable(8) ptr @"_ZNKSt9_Any_data9_M_accessIZN7rocksdb11FileIndexer11UpdateIndexEPNS1_5ArenaEmPSt6vectorIPNS1_12FileMetaDataESaIS7_EEE3$_2EERKT_v"(ptr noundef nonnull align 8 dereferenceable(16) %4) #5
  store ptr %5, ptr %3, align 8, !tbaa !89
  %6 = load ptr, ptr %3, align 8, !tbaa !89
  call void @llvm.lifetime.end.p0(i64 8, ptr %3) #5
  ret ptr %6
}

; Function Attrs: mustprogress uwtable
define internal noundef i32 @"_ZNSt17_Function_handlerIFiPKN7rocksdb12FileMetaDataES3_EZNS0_11FileIndexer11UpdateIndexEPNS0_5ArenaEmPSt6vectorIPS1_SaIS9_EEE3$_2E9_M_invokeERKSt9_Any_dataOS3_SI_"(ptr noundef nonnull align 8 dereferenceable(16) %0, ptr noundef nonnull align 8 dereferenceable(8) %1, ptr noundef nonnull align 8 dereferenceable(8) %2) #6 align 2 {
  %4 = alloca ptr, align 8
  %5 = alloca ptr, align 8
  %6 = alloca ptr, align 8
  store ptr %0, ptr %4, align 8, !tbaa !134
  store ptr %1, ptr %5, align 8, !tbaa !136
  store ptr %2, ptr %6, align 8, !tbaa !136
  %7 = load ptr, ptr %4, align 8, !tbaa !134
  %8 = call noundef ptr @"_ZNSt14_Function_base13_Base_managerIZN7rocksdb11FileIndexer11UpdateIndexEPNS1_5ArenaEmPSt6vectorIPNS1_12FileMetaDataESaIS7_EEE3$_2E14_M_get_pointerERKSt9_Any_data"(ptr noundef nonnull align 8 dereferenceable(16) %7) #5
  %9 = load ptr, ptr %5, align 8, !tbaa !136
  %10 = load ptr, ptr %6, align 8, !tbaa !136
  %11 = call noundef i32 @"_ZSt10__invoke_rIiRZN7rocksdb11FileIndexer11UpdateIndexEPNS0_5ArenaEmPSt6vectorIPNS0_12FileMetaDataESaIS6_EEE3$_2JPKS5_SD_EENSt9enable_ifIX16is_invocable_r_vIT_T0_DpT1_EESF_E4typeEOSG_DpOSH_"(ptr noundef nonnull align 8 dereferenceable(8) %8, ptr noundef nonnull align 8 dereferenceable(8) %9, ptr noundef nonnull align 8 dereferenceable(8) %10)
  ret i32 %11
}